target datalayout = "e-m:e-p270:32:32-p271:32:32-p272:64:64-i64:64-i128:128-f80:128-n8:16:32:64-S128"
target triple = "x86_64-pc-linux-gnu"

%struct.mq = type { ptr, i32, i32, ptr, ptr, i64, ptr, i64, ptr, i64, ptr, i8, ptr, ptr, [10 x %struct.mq_item] }
%struct.mq_item = type { i32, i64, i64 }
%struct.m512 = type { <4 x i64>, <4 x i64> }
%struct.LimExNFA512 = type { [256 x i8], i32, i32, i32, i32, i32, i32, i32, i32, i32, i32, i32, i32, i32, i32, i32, i32, i32, i32, i32, [52 x i8], %struct.m512, %struct.m512, %struct.m512, %struct.m512, %struct.m512, %struct.m512, %struct.m512, %struct.m512, %struct.m512, %struct.m512, %struct.m512, %struct.m512, [8 x %struct.m512], i32, [8 x i8], [52 x i8], %struct.m512, %struct.m512, %struct.m512 }

; Function Attrs: alwaysinline nounwind uwtable
define internal i32 @_mm256_movemask_epi8(<4 x i64> noundef %0) #3 {
  %2 = alloca <4 x i64>, align 32
  store <4 x i64> %0, ptr %2, align 32
  %3 = load <4 x i64>, ptr %2, align 32
  %4 = bitcast <4 x i64> %3 to <32 x i8>
  %5 = call i32 @llvm.x86.avx2.pmovmskb(<32 x i8> %4)
  ret i32 %5
}

; Function Attrs: alwaysinline nounwind uwtable
define internal <4 x i64> @_mm256_cmpeq_epi8(<4 x i64> noundef %0, <4 x i64> noundef %1) #3 {
  %3 = alloca <4 x i64>, align 32
  %4 = alloca <4 x i64>, align 32
  store <4 x i64> %0, ptr %3, align 32
  store <4 x i64> %1, ptr %4, align 32
  %5 = load <4 x i64>, ptr %3, align 32
  %6 = bitcast <4 x i64> %5 to <32 x i8>
  %7 = load <4 x i64>, ptr %4, align 32
  %8 = bitcast <4 x i64> %7 to <32 x i8>
  %9 = icmp eq <32 x i8> %6, %8
  %10 = sext <32 x i1> %9 to <32 x i8>
  %11 = bitcast <32 x i8> %10 to <4 x i64>
  ret <4 x i64> %11
}

; Function Attrs: alwaysinline nounwind uwtable
define internal <4 x i64> @_mm256_setzero_si256() #3 {
  %1 = alloca <4 x i64>, align 32
  store <4 x i64> zeroinitializer, ptr %1, align 32
  %2 = load <4 x i64>, ptr %1, align 32
  ret <4 x i64> %2
}

; Function Attrs: alwaysinline nounwind uwtable
define internal <4 x i64> @_mm256_or_si256(<4 x i64> noundef %0, <4 x i64> noundef %1) #3 {
  %3 = alloca <4 x i64>, align 32
  %4 = alloca <4 x i64>, align 32
  store <4 x i64> %0, ptr %3, align 32
  store <4 x i64> %1, ptr %4, align 32
  %5 = load <4 x i64>, ptr %3, align 32
  %6 = load <4 x i64>, ptr %4, align 32
  %7 = or <4 x i64> %5, %6
  ret <4 x i64> %7
}

; Function Attrs: alwaysinline nounwind uwtable
define internal <4 x i64> @_mm256_and_si256(<4 x i64> noundef %0, <4 x i64> noundef %1) #3 {
  %3 = alloca <4 x i64>, align 32
  %4 = alloca <4 x i64>, align 32
  store <4 x i64> %0, ptr %3, align 32
  store <4 x i64> %1, ptr %4, align 32
  %5 = load <4 x i64>, ptr %3, align 32
  %6 = load <4 x i64>, ptr %4, align 32
  %7 = and <4 x i64> %5, %6
  ret <4 x i64> %7
}

; Function Attrs: alwaysinline nounwind uwtable
define internal <4 x i64> @_mm256_load_si256(ptr noundef %0) #3 {
  %2 = alloca ptr, align 8
  store ptr %0, ptr %2, align 8
  %3 = load ptr, ptr %2, align 8
  %4 = load <4 x i64>, ptr %3, align 32
  ret <4 x i64> %4
}

; Function Attrs: alwaysinline nounwind uwtable
define internal i32 @diff256(<4 x i64> noundef %0, <4 x i64> noundef %1) #3 {
  %3 = alloca <4 x i64>, align 32
  %4 = alloca <4 x i64>, align 32
  store <4 x i64> %0, ptr %3, align 32
  store <4 x i64> %1, ptr %4, align 32
  %5 = load <4 x i64>, ptr %3, align 32
  %6 = load <4 x i64>, ptr %4, align 32
  %7 = call <4 x i64> @_mm256_cmpeq_epi8(<4 x i64> noundef %5, <4 x i64> noundef %6)
  %8 = call i32 @_mm256_movemask_epi8(<4 x i64> noundef %7)
  %9 = xor i32 %8, -1
  %10 = icmp ne i32 %9, 0
  %11 = xor i1 %10, true
  %12 = xor i1 %11, true
  %13 = zext i1 %12 to i32
  ret i32 %13
}

; Function Attrs: alwaysinline nounwind uwtable
define internal <4 x i64> @zeroes256() #3 {
  %1 = call <4 x i64> @_mm256_setzero_si256()
  ret <4 x i64> %1
}

; Function Attrs: alwaysinline nounwind uwtable
define internal <4 x i64> @or256(<4 x i64> noundef %0, <4 x i64> noundef %1) #3 {
  %3 = alloca <4 x i64>, align 32
  %4 = alloca <4 x i64>, align 32
  store <4 x i64> %0, ptr %3, align 32
  store <4 x i64> %1, ptr %4, align 32
  %5 = load <4 x i64>, ptr %3, align 32
  %6 = load <4 x i64>, ptr %4, align 32
  %7 = call <4 x i64> @_mm256_or_si256(<4 x i64> noundef %5, <4 x i64> noundef %6)
  ret <4 x i64> %7
}

; Function Attrs: alwaysinline nounwind uwtable
define internal <4 x i64> @and256(<4 x i64> noundef %0, <4 x i64> noundef %1) #3 {
  %3 = alloca <4 x i64>, align 32
  %4 = alloca <4 x i64>, align 32
  store <4 x i64> %0, ptr %3, align 32
  store <4 x i64> %1, ptr %4, align 32
  %5 = load <4 x i64>, ptr %3, align 32
  %6 = load <4 x i64>, ptr %4, align 32
  %7 = call <4 x i64> @_mm256_and_si256(<4 x i64> noundef %5, <4 x i64> noundef %6)
  ret <4 x i64> %7
}

; Function Attrs: alwaysinline nounwind uwtable
define internal <4 x i64> @load256(ptr noundef %0) #3 {
  %2 = alloca ptr, align 8
  store ptr %0, ptr %2, align 8
  %3 = load ptr, ptr %2, align 8
  %4 = call <4 x i64> @_mm256_load_si256(ptr noundef %3)
  ret <4 x i64> %4
}

; Function Attrs: alwaysinline nounwind uwtable
define internal i64 @q_cur_offset(ptr noundef %0) #2 {
  %2 = alloca ptr, align 8
  store ptr %0, ptr %2, align 8
  %3 = load ptr, ptr %2, align 8
  %4 = getelementptr inbounds nuw %struct.mq, ptr %3, i32 0, i32 5
  %5 = load i64, ptr %4, align 8
  %6 = load ptr, ptr %2, align 8
  %7 = getelementptr inbounds nuw %struct.mq, ptr %6, i32 0, i32 14
  %8 = load ptr, ptr %2, align 8
  %9 = getelementptr inbounds nuw %struct.mq, ptr %8, i32 0, i32 1
  %10 = load i32, ptr %9, align 8
  %11 = zext i32 %10 to i64
  %12 = getelementptr inbounds nuw [10 x %struct.mq_item], ptr %7, i64 0, i64 %11
  %13 = getelementptr inbounds nuw %struct.mq_item, ptr %12, i32 0, i32 1
  %14 = load i64, ptr %13, align 8
  %15 = add i64 %5, %14
  ret i64 %15
}

; Function Attrs: alwaysinline nounwind uwtable
define internal i32 @isnonzero512(ptr noundef byval(%struct.m512) align 64 %0) #3 {
  %2 = alloca <4 x i64>, align 32
  call void @llvm.lifetime.start.p0(i64 32, ptr %2) #12
  %3 = getelementptr inbounds nuw %struct.m512, ptr %0, i32 0, i32 0
  %4 = load <4 x i64>, ptr %3, align 64
  %5 = getelementptr inbounds nuw %struct.m512, ptr %0, i32 0, i32 1
  %6 = load <4 x i64>, ptr %5, align 32
  %7 = call <4 x i64> @or256(<4 x i64> noundef %4, <4 x i64> noundef %6)
  store <4 x i64> %7, ptr %2, align 32
  %8 = load <4 x i64>, ptr %2, align 32
  %9 = call <4 x i64> @zeroes256()
  %10 = call i32 @diff256(<4 x i64> noundef %8, <4 x i64> noundef %9)
  %11 = icmp ne i32 %10, 0
  %12 = xor i1 %11, true
  %13 = xor i1 %12, true
  %14 = zext i1 %13 to i32
  call void @llvm.lifetime.end.p0(i64 32, ptr %2) #12
  ret i32 %14
}

; Function Attrs: alwaysinline nounwind uwtable
define internal void @and512(ptr dead_on_unwind noalias writable sret(%struct.m512) align 64 %0, ptr noundef byval(%struct.m512) align 64 %1, ptr noundef byval(%struct.m512) align 64 %2) #3 {
  %4 = getelementptr inbounds nuw %struct.m512, ptr %1, i32 0, i32 0
  %5 = load <4 x i64>, ptr %4, align 64
  %6 = getelementptr inbounds nuw %struct.m512, ptr %2, i32 0, i32 0
  %7 = load <4 x i64>, ptr %6, align 64
  %8 = call <4 x i64> @and256(<4 x i64> noundef %5, <4 x i64> noundef %7)
  %9 = getelementptr inbounds nuw %struct.m512, ptr %0, i32 0, i32 0
  store <4 x i64> %8, ptr %9, align 64
  %10 = getelementptr inbounds nuw %struct.m512, ptr %1, i32 0, i32 1
  %11 = load <4 x i64>, ptr %10, align 32
  %12 = getelementptr inbounds nuw %struct.m512, ptr %2, i32 0, i32 1
  %13 = load <4 x i64>, ptr %12, align 32
  %14 = call <4 x i64> @and256(<4 x i64> noundef %11, <4 x i64> noundef %13)
  %15 = getelementptr inbounds nuw %struct.m512, ptr %0, i32 0, i32 1
  store <4 x i64> %14, ptr %15, align 32
  ret void
}

; Function Attrs: alwaysinline nounwind uwtable
define internal void @load512(ptr dead_on_unwind noalias writable sret(%struct.m512) align 64 %0, ptr noundef %1) #3 {
  %3 = alloca ptr, align 8
  store ptr %1, ptr %3, align 8
  %4 = getelementptr inbounds nuw %struct.m512, ptr %0, i32 0, i32 0
  %5 = load ptr, ptr %3, align 8
  %6 = call <4 x i64> @load256(ptr noundef %5)
  store <4 x i64> %6, ptr %4, align 64
  %7 = getelementptr inbounds nuw %struct.m512, ptr %0, i32 0, i32 1
  %8 = load ptr, ptr %3, align 8
  %9 = getelementptr inbounds i8, ptr %8, i64 32
  %10 = call <4 x i64> @load256(ptr noundef %9)
  store <4 x i64> %10, ptr %7, align 32
  ret void
}

; Function Attrs: alwaysinline nounwind uwtable
define internal signext i8 @moNfaReportCurrent512(ptr noundef %0, ptr noundef %1) #2 {
  %3 = alloca i8, align 1
  %4 = alloca ptr, align 8
  %5 = alloca ptr, align 8
  %6 = alloca %struct.m512, align 64
  %7 = alloca %struct.m512, align 64
  %8 = alloca %struct.m512, align 64
  %9 = alloca ptr, align 8
  %10 = alloca i64, align 8
  %11 = alloca i32, align 4
  store ptr %0, ptr %4, align 8
  store ptr %1, ptr %5, align 8
  call void @llvm.lifetime.start.p0(i64 64, ptr %6) #12
  %12 = load ptr, ptr %5, align 8
  %13 = getelementptr inbounds nuw %struct.mq, ptr %12, i32 0, i32 3
  %14 = load ptr, ptr %13, align 8
  call void @llvm.memcpy.p0.p0.i64(ptr align 64 %6, ptr align 64 %14, i64 64, i1 false)
  call void @llvm.lifetime.start.p0(i64 64, ptr %7) #12
  %15 = load ptr, ptr %4, align 8
  %16 = getelementptr inbounds nuw %struct.LimExNFA512, ptr %15, i32 0, i32 23
  call void @load512(ptr dead_on_unwind writable sret(%struct.m512) align 64 %7, ptr noundef %16)
  call void @llvm.lifetime.start.p0(i64 64, ptr %8) #12
  call void @and512(ptr dead_on_unwind writable sret(%struct.m512) align 64 %8, ptr noundef byval(%struct.m512) align 64 %6, ptr noundef byval(%struct.m512) align 64 %7)
  %17 = call i32 @isnonzero512(ptr noundef byval(%struct.m512) align 64 %8)
  %18 = icmp ne i32 %17, 0
  %19 = xor i1 %18, true
  %20 = xor i1 %19, true
  %21 = zext i1 %20 to i32
  %22 = sext i32 %21 to i64
  %23 = call i64 @llvm.expect.i64(i64 %22, i64 0)
  %24 = icmp ne i64 %23, 0
  br i1 %24, label %25, label %56

25:                                               ; preds = %2
  br label %26

26:                                               ; preds = %25
  br label %27

27:                                               ; preds = %26
  br label %28

28:                                               ; preds = %27
  br label %29

29:                                               ; preds = %28
  br label %30

30:                                               ; preds = %29
  br label %31

31:                                               ; preds = %30
  call void @llvm.lifetime.start.p0(i64 8, ptr %9) #12
  %32 = load ptr, ptr %4, align 8
  %33 = load ptr, ptr %4, align 8
  %34 = getelementptr inbounds nuw %struct.LimExNFA512, ptr %33, i32 0, i32 7
  %35 = load i32, ptr %34, align 8
  %36 = zext i32 %35 to i64
  %37 = getelementptr inbounds nuw i8, ptr %32, i64 %36
  store ptr %37, ptr %9, align 8
  call void @llvm.lifetime.start.p0(i64 8, ptr %10) #12
  %38 = load ptr, ptr %5, align 8
  %39 = call i64 @q_cur_offset(ptr noundef %38)
  store i64 %39, ptr %10, align 8
  %40 = load ptr, ptr %4, align 8
  %41 = load ptr, ptr %9, align 8
  %42 = load i64, ptr %10, align 8
  %43 = load ptr, ptr %5, align 8
  %44 = getelementptr inbounds nuw %struct.mq, ptr %43, i32 0, i32 12
  %45 = load ptr, ptr %44, align 8
  %46 = load ptr, ptr %5, align 8
  %47 = getelementptr inbounds nuw %struct.mq, ptr %46, i32 0, i32 13
  %48 = load ptr, ptr %47, align 8
  %49 = call signext i8 @moProcessAcceptsNoSquash512(ptr noundef %40, ptr noundef %8, ptr noundef %7, ptr noundef %41, i64 noundef %42, ptr noundef %45, ptr noundef %48)
  %50 = icmp ne i8 %49, 0
  br i1 %50, label %51, label %52

51:                                               ; preds = %31
  store i8 0, ptr %3, align 1
  store i32 1, ptr %11, align 4
  br label %53

52:                                               ; preds = %31
  store i32 0, ptr %11, align 4
  br label %53

53:                                               ; preds = %52, %51
  call void @llvm.lifetime.end.p0(i64 8, ptr %10) #12
  call void @llvm.lifetime.end.p0(i64 8, ptr %9) #12
  %54 = load i32, ptr %11, align 4
  switch i32 %54, label %57 [
    i32 0, label %55
  ]

55:                                               ; preds = %53
  br label %56

56:                                               ; preds = %55, %2
  store i8 1, ptr %3, align 1
  store i32 1, ptr %11, align 4
  br label %57

57:                                               ; preds = %56, %53
  call void @llvm.lifetime.end.p0(i64 64, ptr %8) #12
  call void @llvm.lifetime.end.p0(i64 64, ptr %7) #12
  call void @llvm.lifetime.end.p0(i64 64, ptr %6) #12
  %58 = load i8, ptr %3, align 1
  ret i8 %58
}

; Function Attrs: nounwind uwtable
define hidden signext i8 @nfaExecLimEx512_reportCurrent(ptr noundef %0, ptr noundef %1) #0 {
  %3 = alloca ptr, align 8
  %4 = alloca ptr, align 8
  %5 = alloca ptr, align 8
  store ptr %0, ptr %3, align 8
  store ptr %1, ptr %4, align 8
  call void @llvm.lifetime.start.p0(i64 8, ptr %5) #12
  %6 = load ptr, ptr %3, align 8
  %7 = getelementptr inbounds nuw i8, ptr %6, i64 64
  store ptr %7, ptr %5, align 8
  %8 = load ptr, ptr %5, align 8
  %9 = load ptr, ptr %4, align 8
  %10 = call signext i8 @moNfaReportCurrent512(ptr noundef %8, ptr noundef %9)
  call void @llvm.lifetime.end.p0(i64 8, ptr %5) #12
  ret i8 1
}