; Function Attrs: nounwind uwtable
define hidden noundef signext i8 @nfaExecLimEx512_reportCurrent(ptr noundef readonly captures(none) %0, ptr noundef readonly captures(none) %1) local_unnamed_addr #0 {
  %3 = alloca %struct.m512, align 64
  %4 = alloca %struct.m512, align 64
  %5 = getelementptr inbounds nuw i8, ptr %1, i64 16
  %6 = load ptr, ptr %5, align 8
  %.sroa.05.0.copyload = load <4 x i64>, ptr %6, align 64
  %.sroa.46.0..sroa_idx = getelementptr inbounds nuw i8, ptr %6, i64 32
  %.sroa.46.0.copyload = load <4 x i64>, ptr %.sroa.46.0..sroa_idx, align 32
  call void @llvm.lifetime.start.p0(i64 64, ptr nonnull %3) #11
  %7 = getelementptr inbounds nuw i8, ptr %0, i64 576
  tail call void @llvm.experimental.noalias.scope.decl(metadata !548)
  %8 = load <4 x i64>, ptr %7, align 32, !noalias !548
  store <4 x i64> %8, ptr %3, align 64, !alias.scope !548
  %9 = getelementptr inbounds nuw i8, ptr %3, i64 32
  %10 = getelementptr inbounds nuw i8, ptr %0, i64 608
  %11 = load <4 x i64>, ptr %10, align 32, !noalias !548
  store <4 x i64> %11, ptr %9, align 32, !alias.scope !548
  call void @llvm.lifetime.start.p0(i64 64, ptr nonnull %4) #11
  %12 = and <4 x i64> %8, %.sroa.05.0.copyload
  store <4 x i64> %12, ptr %4, align 64, !alias.scope !551
  %13 = and <4 x i64> %11, %.sroa.46.0.copyload
  %14 = getelementptr inbounds nuw i8, ptr %4, i64 32
  store <4 x i64> %13, ptr %14, align 32, !alias.scope !551
  %15 = or <4 x i64> %13, %12
  %16 = bitcast <4 x i64> %15 to <32 x i8>
  %17 = icmp ne <32 x i8> %16, zeroinitializer
  %18 = bitcast <32 x i1> %17 to i32
  %.not = icmp eq i32 %18, 0
  br i1 %.not, label %moNfaReportCurrent512.exit, label %19, !prof !74

19:                                               ; preds = %2
  %20 = getelementptr inbounds nuw i8, ptr %0, i64 64
  %21 = getelementptr inbounds nuw i8, ptr %0, i64 344
  %22 = load i32, ptr %21, align 8
  %23 = zext i32 %22 to i64
  %24 = getelementptr inbounds nuw i8, ptr %20, i64 %23
  %25 = getelementptr inbounds nuw i8, ptr %1, i64 32
  %26 = load i64, ptr %25, align 8
  %27 = getelementptr inbounds nuw i8, ptr %1, i64 8
  %28 = load i32, ptr %27, align 8
  %29 = zext i32 %28 to i64
  %.idx.i = mul nuw nsw i64 %29, 24
  %30 = getelementptr i8, ptr %1, i64 112
  %31 = getelementptr i8, ptr %30, i64 %.idx.i
  %32 = load i64, ptr %31, align 8
  %33 = add i64 %32, %26
  %34 = getelementptr inbounds nuw i8, ptr %1, i64 88
  %35 = load ptr, ptr %34, align 8
  %36 = getelementptr inbounds nuw i8, ptr %1, i64 96
  %37 = load ptr, ptr %36, align 8
  %38 = call fastcc signext i8 @moProcessAcceptsNoSquash512(ptr noundef nonnull %20, ptr noundef %4, ptr noundef %3, ptr noundef nonnull %24, i64 noundef %33, ptr noundef %35, ptr noundef %37)
  br label %moNfaReportCurrent512.exit

moNfaReportCurrent512.exit:                       ; preds = %19, %2
  call void @llvm.lifetime.end.p0(i64 64, ptr nonnull %4) #11
  call void @llvm.lifetime.end.p0(i64 64, ptr nonnull %3) #11
  ret i8 1
}